target datalayout = "e-m:e-p270:32:32-p271:32:32-p272:64:64-i64:64-i128:128-f80:128-n8:16:32:64-S128"
target triple = "x86_64-pc-linux-gnu"

; Function Attrs: mustprogress nounwind uwtable
define void @_Z8upstringPc(ptr noundef %0) #1 {
  %2 = alloca ptr, align 8
  %3 = alloca i64, align 8
  store ptr %0, ptr %2, align 8, !tbaa !4
  %4 = load ptr, ptr %2, align 8, !tbaa !4
  %5 = icmp eq ptr null, %4
  br i1 %5, label %6, label %7

6:                                                ; preds = %1
  br label %28

7:                                                ; preds = %1
  call void @llvm.lifetime.start.p0(i64 8, ptr %3) #13
  store i64 0, ptr %3, align 8, !tbaa !21
  br label %8

8:                                                ; preds = %25, %7
  %9 = load i64, ptr %3, align 8, !tbaa !21
  %10 = load ptr, ptr %2, align 8, !tbaa !4
  %11 = call i64 @strlen(ptr noundef %10) #14
  %12 = icmp ult i64 %9, %11
  br i1 %12, label %14, label %13

13:                                               ; preds = %8
  call void @llvm.lifetime.end.p0(i64 8, ptr %3) #13
  br label %28

14:                                               ; preds = %8
  %15 = load ptr, ptr %2, align 8, !tbaa !4
  %16 = load i64, ptr %3, align 8, !tbaa !21
  %17 = getelementptr inbounds nuw i8, ptr %15, i64 %16
  %18 = load i8, ptr %17, align 1, !tbaa !11
  %19 = sext i8 %18 to i32
  %20 = call i32 @toupper(i32 noundef %19) #14
  %21 = trunc i32 %20 to i8
  %22 = load ptr, ptr %2, align 8, !tbaa !4
  %23 = load i64, ptr %3, align 8, !tbaa !21
  %24 = getelementptr inbounds nuw i8, ptr %22, i64 %23
  store i8 %21, ptr %24, align 1, !tbaa !11
  br label %25

25:                                               ; preds = %14
  %26 = load i64, ptr %3, align 8, !tbaa !21
  %27 = add i64 %26, 1
  store i64 %27, ptr %3, align 8, !tbaa !21
  br label %8, !llvm.loop !70

28:                                               ; preds = %6, %13
  ret void
}