; Function Attrs: mustprogress nofree nounwind memory(read, argmem: readwrite) uwtable
define void @_Z8upstringPc(ptr noundef %0) local_unnamed_addr #12 {
  %2 = icmp eq ptr %0, null
  br i1 %2, label %.loopexit, label %.preheader

.preheader:                                       ; preds = %1
  %char0 = load i8, ptr %0, align 1
  %.not = icmp eq i8 %char0, 0
  br i1 %.not, label %.loopexit, label %.lr.ph

.lr.ph:                                           ; preds = %.preheader, %.lr.ph
  %.08 = phi i64 [ %8, %.lr.ph ], [ 0, %.preheader ]
  %3 = getelementptr inbounds nuw i8, ptr %0, i64 %.08
  %4 = load i8, ptr %3, align 1, !tbaa !4
  %5 = sext i8 %4 to i32
  %6 = tail call i32 @toupper(i32 noundef %5) #24
  %7 = trunc i32 %6 to i8
  store i8 %7, ptr %3, align 1, !tbaa !4
  %8 = add nuw i64 %.08, 1
  %9 = tail call i64 @strlen(ptr noundef nonnull dereferenceable(1) %0) #24
  %10 = icmp ult i64 %8, %9
  br i1 %10, label %.lr.ph, label %.loopexit, !llvm.loop !20

.loopexit:                                        ; preds = %.lr.ph, %.preheader, %1
  ret void
}